target datalayout = "e-m:e-p270:32:32-p271:32:32-p272:64:64-i64:64-i128:128-f80:128-n8:16:32:64-S128"
target triple = "x86_64-pc-linux-gnu"

%struct.ForEachState = type { ptr, i32 }
%struct.List = type { i32, i32, i32, ptr, [0 x %union.ListCell] }
%union.ListCell = type { ptr }
%struct.QualCost = type { double, double }
%struct.Expr = type { i32 }
%struct.RestrictInfo = type { i32, ptr, i8, i8, i8, i8, i8, i8, i32, i32, i32, ptr, ptr, ptr, ptr, ptr, ptr, ptr, i32, ptr, %struct.QualCost, double, double, ptr, ptr, ptr, ptr, ptr, ptr, i8, i32, double, double, double, double, i32, i32 }
%struct.Node = type { i32 }
%struct.BoolExpr = type { %struct.Expr, i32, ptr, i32 }

; Function Attrs: inlinehint nounwind uwtable
define internal zeroext i1 @is_andclause(ptr noundef %0) #5 {
  %2 = alloca ptr, align 8
  store ptr %0, ptr %2, align 8
  %3 = load ptr, ptr %2, align 8
  %4 = icmp ne ptr %3, null
  br i1 %4, label %5, label %15

5:                                                ; preds = %1
  %6 = load ptr, ptr %2, align 8
  %7 = getelementptr inbounds nuw %struct.Node, ptr %6, i32 0, i32 0
  %8 = load i32, ptr %7, align 4
  %9 = icmp eq i32 %8, 21
  br i1 %9, label %10, label %15

10:                                               ; preds = %5
  %11 = load ptr, ptr %2, align 8
  %12 = getelementptr inbounds nuw %struct.BoolExpr, ptr %11, i32 0, i32 1
  %13 = load i32, ptr %12, align 4
  %14 = icmp eq i32 %13, 0
  br label %15

15:                                               ; preds = %10, %5, %1
  %16 = phi i1 [ false, %5 ], [ false, %1 ], [ %14, %10 ]
  ret i1 %16
}

; Function Attrs: nounwind uwtable
define internal void @remove_rel_from_restrictinfo(ptr noundef %0, i32 noundef %1, i32 noundef %2) #0 {
  %4 = alloca ptr, align 8
  %5 = alloca i32, align 4
  %6 = alloca i32, align 4
  %7 = alloca ptr, align 8
  %8 = alloca %struct.ForEachState, align 8
  %9 = alloca i32, align 4
  %10 = alloca ptr, align 8
  %11 = alloca ptr, align 8
  %12 = alloca ptr, align 8
  %13 = alloca %struct.ForEachState, align 8
  %14 = alloca ptr, align 8
  %15 = alloca ptr, align 8
  store ptr %0, ptr %4, align 8
  store i32 %1, ptr %5, align 4
  store i32 %2, ptr %6, align 4
  %16 = load ptr, ptr %4, align 8
  %17 = getelementptr inbounds nuw %struct.RestrictInfo, ptr %16, i32 0, i32 11
  %18 = load ptr, ptr %17, align 8
  %19 = call ptr @bms_copy(ptr noundef %18)
  %20 = load ptr, ptr %4, align 8
  %21 = getelementptr inbounds nuw %struct.RestrictInfo, ptr %20, i32 0, i32 11
  store ptr %19, ptr %21, align 8
  %22 = load ptr, ptr %4, align 8
  %23 = getelementptr inbounds nuw %struct.RestrictInfo, ptr %22, i32 0, i32 11
  %24 = load ptr, ptr %23, align 8
  %25 = load i32, ptr %5, align 4
  %26 = call ptr @bms_del_member(ptr noundef %24, i32 noundef %25)
  %27 = load ptr, ptr %4, align 8
  %28 = getelementptr inbounds nuw %struct.RestrictInfo, ptr %27, i32 0, i32 11
  store ptr %26, ptr %28, align 8
  %29 = load ptr, ptr %4, align 8
  %30 = getelementptr inbounds nuw %struct.RestrictInfo, ptr %29, i32 0, i32 11
  %31 = load ptr, ptr %30, align 8
  %32 = load i32, ptr %6, align 4
  %33 = call ptr @bms_del_member(ptr noundef %31, i32 noundef %32)
  %34 = load ptr, ptr %4, align 8
  %35 = getelementptr inbounds nuw %struct.RestrictInfo, ptr %34, i32 0, i32 11
  store ptr %33, ptr %35, align 8
  %36 = load ptr, ptr %4, align 8
  %37 = getelementptr inbounds nuw %struct.RestrictInfo, ptr %36, i32 0, i32 12
  %38 = load ptr, ptr %37, align 8
  %39 = call ptr @bms_copy(ptr noundef %38)
  %40 = load ptr, ptr %4, align 8
  %41 = getelementptr inbounds nuw %struct.RestrictInfo, ptr %40, i32 0, i32 12
  store ptr %39, ptr %41, align 8
  %42 = load ptr, ptr %4, align 8
  %43 = getelementptr inbounds nuw %struct.RestrictInfo, ptr %42, i32 0, i32 12
  %44 = load ptr, ptr %43, align 8
  %45 = load i32, ptr %5, align 4
  %46 = call ptr @bms_del_member(ptr noundef %44, i32 noundef %45)
  %47 = load ptr, ptr %4, align 8
  %48 = getelementptr inbounds nuw %struct.RestrictInfo, ptr %47, i32 0, i32 12
  store ptr %46, ptr %48, align 8
  %49 = load ptr, ptr %4, align 8
  %50 = getelementptr inbounds nuw %struct.RestrictInfo, ptr %49, i32 0, i32 12
  %51 = load ptr, ptr %50, align 8
  %52 = load i32, ptr %6, align 4
  %53 = call ptr @bms_del_member(ptr noundef %51, i32 noundef %52)
  %54 = load ptr, ptr %4, align 8
  %55 = getelementptr inbounds nuw %struct.RestrictInfo, ptr %54, i32 0, i32 12
  store ptr %53, ptr %55, align 8
  %56 = load ptr, ptr %4, align 8
  %57 = call zeroext i1 @restriction_is_or_clause(ptr noundef %56)
  br i1 %57, label %58, label %154

58:                                               ; preds = %3
  call void @llvm.lifetime.start.p0(i64 8, ptr %7) #7
  call void @llvm.lifetime.start.p0(i64 16, ptr %8) #7
  %59 = getelementptr inbounds nuw %struct.ForEachState, ptr %8, i32 0, i32 0
  %60 = load ptr, ptr %4, align 8
  %61 = getelementptr inbounds nuw %struct.RestrictInfo, ptr %60, i32 0, i32 17
  %62 = load ptr, ptr %61, align 8
  %63 = getelementptr inbounds nuw %struct.BoolExpr, ptr %62, i32 0, i32 2
  %64 = load ptr, ptr %63, align 8
  store ptr %64, ptr %59, align 8
  %65 = getelementptr inbounds nuw %struct.ForEachState, ptr %8, i32 0, i32 1
  store i32 0, ptr %65, align 8
  %66 = getelementptr i8, ptr %8, i64 12
  call void @llvm.memset.p0.i64(ptr align 4 %66, i8 0, i64 4, i1 false)
  br label %67

67:                                               ; preds = %149, %58
  %68 = getelementptr inbounds nuw %struct.ForEachState, ptr %8, i32 0, i32 0
  %69 = load ptr, ptr %68, align 8
  %70 = icmp ne ptr %69, null
  br i1 %70, label %71, label %88

71:                                               ; preds = %67
  %72 = getelementptr inbounds nuw %struct.ForEachState, ptr %8, i32 0, i32 1
  %73 = load i32, ptr %72, align 8
  %74 = getelementptr inbounds nuw %struct.ForEachState, ptr %8, i32 0, i32 0
  %75 = load ptr, ptr %74, align 8
  %76 = getelementptr inbounds nuw %struct.List, ptr %75, i32 0, i32 1
  %77 = load i32, ptr %76, align 4
  %78 = icmp slt i32 %73, %77
  br i1 %78, label %79, label %88

79:                                               ; preds = %71
  %80 = getelementptr inbounds nuw %struct.ForEachState, ptr %8, i32 0, i32 0
  %81 = load ptr, ptr %80, align 8
  %82 = getelementptr inbounds nuw %struct.List, ptr %81, i32 0, i32 3
  %83 = load ptr, ptr %82, align 8
  %84 = getelementptr inbounds nuw %struct.ForEachState, ptr %8, i32 0, i32 1
  %85 = load i32, ptr %84, align 8
  %86 = sext i32 %85 to i64
  %87 = getelementptr inbounds %union.ListCell, ptr %83, i64 %86
  store ptr %87, ptr %7, align 8
  br label %89

88:                                               ; preds = %71, %67
  store ptr null, ptr %7, align 8
  br label %89

89:                                               ; preds = %88, %79
  %90 = phi i32 [ 1, %79 ], [ 0, %88 ]
  %91 = icmp ne i32 %90, 0
  br i1 %91, label %93, label %92

92:                                               ; preds = %89
  store i32 2, ptr %9, align 4
  call void @llvm.lifetime.end.p0(i64 16, ptr %8) #7
  br label %153

93:                                               ; preds = %89
  call void @llvm.lifetime.start.p0(i64 8, ptr %10) #7
  %94 = load ptr, ptr %7, align 8
  %95 = load ptr, ptr %94, align 8
  store ptr %95, ptr %10, align 8
  %96 = load ptr, ptr %10, align 8
  %97 = call zeroext i1 @is_andclause(ptr noundef %96)
  br i1 %97, label %98, label %143

98:                                               ; preds = %93
  call void @llvm.lifetime.start.p0(i64 8, ptr %11) #7
  %99 = load ptr, ptr %10, align 8
  %100 = getelementptr inbounds nuw %struct.BoolExpr, ptr %99, i32 0, i32 2
  %101 = load ptr, ptr %100, align 8
  store ptr %101, ptr %11, align 8
  call void @llvm.lifetime.start.p0(i64 8, ptr %12) #7
  call void @llvm.lifetime.start.p0(i64 16, ptr %13) #7
  %102 = getelementptr inbounds nuw %struct.ForEachState, ptr %13, i32 0, i32 0
  %103 = load ptr, ptr %11, align 8
  store ptr %103, ptr %102, align 8
  %104 = getelementptr inbounds nuw %struct.ForEachState, ptr %13, i32 0, i32 1
  store i32 0, ptr %104, align 8
  %105 = getelementptr i8, ptr %13, i64 12
  call void @llvm.memset.p0.i64(ptr align 4 %105, i8 0, i64 4, i1 false)
  br label %106

106:                                              ; preds = %138, %98
  %107 = getelementptr inbounds nuw %struct.ForEachState, ptr %13, i32 0, i32 0
  %108 = load ptr, ptr %107, align 8
  %109 = icmp ne ptr %108, null
  br i1 %109, label %110, label %127

110:                                              ; preds = %106
  %111 = getelementptr inbounds nuw %struct.ForEachState, ptr %13, i32 0, i32 1
  %112 = load i32, ptr %111, align 8
  %113 = getelementptr inbounds nuw %struct.ForEachState, ptr %13, i32 0, i32 0
  %114 = load ptr, ptr %113, align 8
  %115 = getelementptr inbounds nuw %struct.List, ptr %114, i32 0, i32 1
  %116 = load i32, ptr %115, align 4
  %117 = icmp slt i32 %112, %116
  br i1 %117, label %118, label %127

118:                                              ; preds = %110
  %119 = getelementptr inbounds nuw %struct.ForEachState, ptr %13, i32 0, i32 0
  %120 = load ptr, ptr %119, align 8
  %121 = getelementptr inbounds nuw %struct.List, ptr %120, i32 0, i32 3
  %122 = load ptr, ptr %121, align 8
  %123 = getelementptr inbounds nuw %struct.ForEachState, ptr %13, i32 0, i32 1
  %124 = load i32, ptr %123, align 8
  %125 = sext i32 %124 to i64
  %126 = getelementptr inbounds %union.ListCell, ptr %122, i64 %125
  store ptr %126, ptr %12, align 8
  br label %128

127:                                              ; preds = %110, %106
  store ptr null, ptr %12, align 8
  br label %128

128:                                              ; preds = %127, %118
  %129 = phi i32 [ 1, %118 ], [ 0, %127 ]
  %130 = icmp ne i32 %129, 0
  br i1 %130, label %132, label %131

131:                                              ; preds = %128
  store i32 5, ptr %9, align 4
  call void @llvm.lifetime.end.p0(i64 16, ptr %13) #7
  br label %142

132:                                              ; preds = %128
  call void @llvm.lifetime.start.p0(i64 8, ptr %14) #7
  %133 = load ptr, ptr %12, align 8
  %134 = load ptr, ptr %133, align 8
  store ptr %134, ptr %14, align 8
  %135 = load ptr, ptr %14, align 8
  %136 = load i32, ptr %5, align 4
  %137 = load i32, ptr %6, align 4
  call void @remove_rel_from_restrictinfo(ptr noundef %135, i32 noundef %136, i32 noundef %137)
  call void @llvm.lifetime.end.p0(i64 8, ptr %14) #7
  br label %138

138:                                              ; preds = %132
  %139 = getelementptr inbounds nuw %struct.ForEachState, ptr %13, i32 0, i32 1
  %140 = load i32, ptr %139, align 8
  %141 = add i32 %140, 1
  store i32 %141, ptr %139, align 8
  br label %106, !llvm.loop !34

142:                                              ; preds = %131
  call void @llvm.lifetime.end.p0(i64 8, ptr %12) #7
  call void @llvm.lifetime.end.p0(i64 8, ptr %11) #7
  br label %148

143:                                              ; preds = %93
  call void @llvm.lifetime.start.p0(i64 8, ptr %15) #7
  %144 = load ptr, ptr %10, align 8
  store ptr %144, ptr %15, align 8
  %145 = load ptr, ptr %15, align 8
  %146 = load i32, ptr %5, align 4
  %147 = load i32, ptr %6, align 4
  call void @remove_rel_from_restrictinfo(ptr noundef %145, i32 noundef %146, i32 noundef %147)
  call void @llvm.lifetime.end.p0(i64 8, ptr %15) #7
  br label %148

148:                                              ; preds = %143, %142
  call void @llvm.lifetime.end.p0(i64 8, ptr %10) #7
  br label %149

149:                                              ; preds = %148
  %150 = getelementptr inbounds nuw %struct.ForEachState, ptr %8, i32 0, i32 1
  %151 = load i32, ptr %150, align 8
  %152 = add i32 %151, 1
  store i32 %152, ptr %150, align 8
  br label %67, !llvm.loop !35

153:                                              ; preds = %92
  call void @llvm.lifetime.end.p0(i64 8, ptr %7) #7
  br label %154

154:                                              ; preds = %153, %3
  ret void
}