; Function Attrs: nounwind uwtable
define internal fastcc void @remove_rel_from_restrictinfo(ptr noundef %0, i32 noundef %1, i32 noundef %2) unnamed_addr #0 {
  %4 = getelementptr inbounds nuw i8, ptr %0, i64 40
  %5 = load ptr, ptr %4, align 8
  %6 = tail call ptr @bms_copy(ptr noundef %5) #7
  store ptr %6, ptr %4, align 8
  %7 = tail call ptr @bms_del_member(ptr noundef %6, i32 noundef %1) #7
  store ptr %7, ptr %4, align 8
  %8 = tail call ptr @bms_del_member(ptr noundef %7, i32 noundef %2) #7
  store ptr %8, ptr %4, align 8
  %9 = getelementptr inbounds nuw i8, ptr %0, i64 48
  %10 = load ptr, ptr %9, align 8
  %11 = tail call ptr @bms_copy(ptr noundef %10) #7
  store ptr %11, ptr %9, align 8
  %12 = tail call ptr @bms_del_member(ptr noundef %11, i32 noundef %1) #7
  store ptr %12, ptr %9, align 8
  %13 = tail call ptr @bms_del_member(ptr noundef %12, i32 noundef %2) #7
  store ptr %13, ptr %9, align 8
  %14 = tail call zeroext i1 @restriction_is_or_clause(ptr noundef %0) #7
  br i1 %14, label %15, label %.thread

15:                                               ; preds = %3
  %16 = getelementptr inbounds nuw i8, ptr %0, i64 88
  %17 = load ptr, ptr %16, align 8
  %18 = getelementptr inbounds nuw i8, ptr %17, i64 8
  %19 = load ptr, ptr %18, align 8
  %20 = getelementptr inbounds nuw i8, ptr %19, i64 4
  %.not = icmp eq ptr %19, null
  br i1 %.not, label %.thread, label %.lr.ph57

.lr.ph57:                                         ; preds = %15
  %21 = getelementptr inbounds nuw i8, ptr %19, i64 16
  %22 = load i32, ptr %20, align 4
  %23 = icmp sgt i32 %22, 0
  br i1 %23, label %.lr.ph64, label %.thread

.lr.ph64:                                         ; preds = %.lr.ph57, %.thread49
  %indvars.iv6063 = phi i64 [ %indvars.iv.next61, %.thread49 ], [ 0, %.lr.ph57 ]
  %24 = load ptr, ptr %21, align 8
  %25 = getelementptr inbounds nuw %union.ListCell, ptr %24, i64 %indvars.iv6063
  %26 = load ptr, ptr %25, align 8
  %.not.i = icmp eq ptr %26, null
  br i1 %.not.i, label %is_andclause.exit.thread, label %27

27:                                               ; preds = %.lr.ph64
  %28 = load i32, ptr %26, align 4
  %29 = icmp eq i32 %28, 21
  br i1 %29, label %is_andclause.exit, label %is_andclause.exit.thread

is_andclause.exit:                                ; preds = %27
  %30 = getelementptr inbounds nuw i8, ptr %26, i64 4
  %31 = load i32, ptr %30, align 4
  %32 = icmp eq i32 %31, 0
  br i1 %32, label %33, label %is_andclause.exit.thread

33:                                               ; preds = %is_andclause.exit
  %34 = getelementptr inbounds nuw i8, ptr %26, i64 8
  %35 = load ptr, ptr %34, align 8
  %36 = getelementptr inbounds nuw i8, ptr %35, i64 4
  %.not44 = icmp eq ptr %35, null
  br i1 %.not44, label %.thread49, label %.lr.ph

.lr.ph:                                           ; preds = %33
  %37 = getelementptr inbounds nuw i8, ptr %35, i64 16
  %38 = load i32, ptr %36, align 4
  %39 = icmp sgt i32 %38, 0
  br i1 %39, label %.lr.ph55, label %.thread49

.lr.ph55:                                         ; preds = %.lr.ph, %.lr.ph55
  %indvars.iv = phi i64 [ %indvars.iv.next, %.lr.ph55 ], [ 0, %.lr.ph ]
  %40 = load ptr, ptr %37, align 8
  %41 = getelementptr inbounds nuw %union.ListCell, ptr %40, i64 %indvars.iv
  %42 = load ptr, ptr %41, align 8
  tail call fastcc void @remove_rel_from_restrictinfo(ptr noundef %42, i32 noundef %1, i32 noundef %2)
  %indvars.iv.next = add nuw nsw i64 %indvars.iv, 1
  %43 = load i32, ptr %36, align 4
  %44 = sext i32 %43 to i64
  %45 = icmp slt i64 %indvars.iv.next, %44
  br i1 %45, label %.lr.ph55, label %.thread49

is_andclause.exit.thread:                         ; preds = %.lr.ph64, %27, %is_andclause.exit
  tail call fastcc void @remove_rel_from_restrictinfo(ptr noundef %26, i32 noundef %1, i32 noundef %2)
  br label %.thread49

.thread49:                                        ; preds = %.lr.ph55, %33, %.lr.ph, %is_andclause.exit.thread
  %indvars.iv.next61 = add nuw nsw i64 %indvars.iv6063, 1
  %46 = load i32, ptr %20, align 4
  %47 = sext i32 %46 to i64
  %48 = icmp slt i64 %indvars.iv.next61, %47
  br i1 %48, label %.lr.ph64, label %.thread

.thread:                                          ; preds = %.thread49, %.lr.ph57, %15, %3
  ret void
}